target datalayout = "e-m:e-p270:32:32-p271:32:32-p272:64:64-i64:64-i128:128-f80:128-n8:16:32:64-S128"
target triple = "x86_64-pc-linux-gnu"

%class.Node_List = type <{ %class.Node_Array, i32, [4 x i8] }>
%class.Node_Array = type { ptr, i32, ptr }
%class.IdealLoopTree = type <{ ptr, ptr, ptr, ptr, ptr, ptr, i32, i32, %class.Node_List, i16, i8, [5 x i8], ptr, ptr, i8, [7 x i8] }>
%class.LoopTreeIterator = type { ptr, ptr }

; Function Attrs: mustprogress nounwind uwtable
define hidden void @_ZN16LoopTreeIterator4nextEv(ptr noundef nonnull align 8 dereferenceable(16) %0) #1 align 2 {
  %2 = alloca ptr, align 8
  store ptr %0, ptr %2, align 8
  %3 = load ptr, ptr %2, align 8
  %4 = getelementptr inbounds %class.LoopTreeIterator, ptr %3, i32 0, i32 1
  %5 = load ptr, ptr %4, align 8
  %6 = getelementptr inbounds %class.IdealLoopTree, ptr %5, i32 0, i32 2
  %7 = load ptr, ptr %6, align 8
  %8 = icmp ne ptr %7, null
  br i1 %8, label %9, label %15

9:                                                ; preds = %1
  %10 = getelementptr inbounds %class.LoopTreeIterator, ptr %3, i32 0, i32 1
  %11 = load ptr, ptr %10, align 8
  %12 = getelementptr inbounds %class.IdealLoopTree, ptr %11, i32 0, i32 2
  %13 = load ptr, ptr %12, align 8
  %14 = getelementptr inbounds %class.LoopTreeIterator, ptr %3, i32 0, i32 1
  store ptr %13, ptr %14, align 8
  br label %64

15:                                               ; preds = %1
  %16 = getelementptr inbounds %class.LoopTreeIterator, ptr %3, i32 0, i32 1
  %17 = load ptr, ptr %16, align 8
  %18 = getelementptr inbounds %class.IdealLoopTree, ptr %17, i32 0, i32 1
  %19 = load ptr, ptr %18, align 8
  %20 = icmp ne ptr %19, null
  br i1 %20, label %21, label %27

21:                                               ; preds = %15
  %22 = getelementptr inbounds %class.LoopTreeIterator, ptr %3, i32 0, i32 1
  %23 = load ptr, ptr %22, align 8
  %24 = getelementptr inbounds %class.IdealLoopTree, ptr %23, i32 0, i32 1
  %25 = load ptr, ptr %24, align 8
  %26 = getelementptr inbounds %class.LoopTreeIterator, ptr %3, i32 0, i32 1
  store ptr %25, ptr %26, align 8
  br label %63

27:                                               ; preds = %15
  br label %28

28:                                               ; preds = %42, %27
  %29 = getelementptr inbounds %class.LoopTreeIterator, ptr %3, i32 0, i32 1
  %30 = load ptr, ptr %29, align 8
  %31 = getelementptr inbounds %class.LoopTreeIterator, ptr %3, i32 0, i32 0
  %32 = load ptr, ptr %31, align 8
  %33 = icmp ne ptr %30, %32
  br i1 %33, label %34, label %40

34:                                               ; preds = %28
  %35 = getelementptr inbounds %class.LoopTreeIterator, ptr %3, i32 0, i32 1
  %36 = load ptr, ptr %35, align 8
  %37 = getelementptr inbounds %class.IdealLoopTree, ptr %36, i32 0, i32 1
  %38 = load ptr, ptr %37, align 8
  %39 = icmp eq ptr %38, null
  br label %40

40:                                               ; preds = %34, %28
  %41 = phi i1 [ false, %28 ], [ %39, %34 ]
  br i1 %41, label %42, label %48

42:                                               ; preds = %40
  %43 = getelementptr inbounds %class.LoopTreeIterator, ptr %3, i32 0, i32 1
  %44 = load ptr, ptr %43, align 8
  %45 = getelementptr inbounds %class.IdealLoopTree, ptr %44, i32 0, i32 0
  %46 = load ptr, ptr %45, align 8
  %47 = getelementptr inbounds %class.LoopTreeIterator, ptr %3, i32 0, i32 1
  store ptr %46, ptr %47, align 8
  br label %28, !llvm.loop !72

48:                                               ; preds = %40
  %49 = getelementptr inbounds %class.LoopTreeIterator, ptr %3, i32 0, i32 1
  %50 = load ptr, ptr %49, align 8
  %51 = getelementptr inbounds %class.LoopTreeIterator, ptr %3, i32 0, i32 0
  %52 = load ptr, ptr %51, align 8
  %53 = icmp eq ptr %50, %52
  br i1 %53, label %54, label %56

54:                                               ; preds = %48
  %55 = getelementptr inbounds %class.LoopTreeIterator, ptr %3, i32 0, i32 1
  store ptr null, ptr %55, align 8
  br label %62

56:                                               ; preds = %48
  %57 = getelementptr inbounds %class.LoopTreeIterator, ptr %3, i32 0, i32 1
  %58 = load ptr, ptr %57, align 8
  %59 = getelementptr inbounds %class.IdealLoopTree, ptr %58, i32 0, i32 1
  %60 = load ptr, ptr %59, align 8
  %61 = getelementptr inbounds %class.LoopTreeIterator, ptr %3, i32 0, i32 1
  store ptr %60, ptr %61, align 8
  br label %62

62:                                               ; preds = %56, %54
  br label %63

63:                                               ; preds = %62, %21
  br label %64

64:                                               ; preds = %63, %9
  ret void
}