; Function Attrs: mustprogress nofree norecurse nosync nounwind memory(read, argmem: readwrite, inaccessiblemem: none) uwtable
define hidden void @_ZN16LoopTreeIterator4nextEv(ptr nocapture noundef nonnull align 8 dereferenceable(16) %0) local_unnamed_addr #8 align 2 {
  %2 = getelementptr inbounds i8, ptr %0, i64 8
  %3 = load ptr, ptr %2, align 8
  %4 = getelementptr inbounds i8, ptr %3, i64 16
  %5 = load ptr, ptr %4, align 8
  %.not = icmp eq ptr %5, null
  br i1 %.not, label %6, label %._crit_edge

6:                                                ; preds = %1
  %7 = getelementptr inbounds i8, ptr %3, i64 8
  %8 = load ptr, ptr %7, align 8
  %.not4 = icmp eq ptr %8, null
  br i1 %.not4, label %.preheader, label %._crit_edge

.preheader:                                       ; preds = %6
  %9 = load ptr, ptr %0, align 8
  %.not57 = icmp eq ptr %3, %9
  br i1 %.not57, label %._crit_edge, label %.lr.ph

.lr.ph:                                           ; preds = %.preheader, %14
  %10 = phi ptr [ %15, %14 ], [ %3, %.preheader ]
  %11 = getelementptr inbounds i8, ptr %10, i64 8
  %12 = load ptr, ptr %11, align 8
  %13 = icmp eq ptr %12, null
  br i1 %13, label %14, label %._crit_edge

14:                                               ; preds = %.lr.ph
  %15 = load ptr, ptr %10, align 8
  store ptr %15, ptr %2, align 8
  %.not5 = icmp eq ptr %15, %9
  br i1 %.not5, label %._crit_edge, label %.lr.ph, !llvm.loop !75

._crit_edge:                                      ; preds = %.lr.ph, %14, %.preheader, %6, %1
  %.sink = phi ptr [ %5, %1 ], [ %8, %6 ], [ null, %.preheader ], [ null, %14 ], [ %12, %.lr.ph ]
  store ptr %.sink, ptr %2, align 8
  ret void
}